target datalayout = "e-m:e-p270:32:32-p271:32:32-p272:64:64-i64:64-i128:128-f80:128-n8:16:32:64-S128"
target triple = "x86_64-pc-linux-gnu"

%struct.WOLFSSL_BUFFER_INFO = type { ptr, i32 }
%struct.WOLFSSL = type <{ ptr, ptr, ptr, ptr, [48 x i8], [48 x i8], ptr, ptr, ptr, ptr, ptr, ptr, ptr, ptr, ptr, ptr, ptr, ptr, ptr, i32, [4 x i8], %struct.WOLFSSL_CIPHER, ptr, %struct.Ciphers, %struct.Ciphers, [8 x i8], %struct.Buffers, ptr, ptr, %struct.WOLFSSL_ALERT_HISTORY, %struct.WOLFSSL_ALERT, i32, i32, i32, i32, i32, i32, i32, i16, [2 x i8], i32, i8, %struct.RecordLayerHeader, %struct.MsgsReceived, %struct.ProtocolVersion, %struct.ProtocolVersion, %struct.CipherSpecs, [2 x i8], %struct.Keys, %struct.Options, ptr, i8, i8, i16, [10 x i16], i8, i8, i16, i16, [38 x i8], i32, i32, [4 x i8], ptr, i8, i8, [6 x i8], ptr, ptr, i16, i8, i8, i32, i8, [3 x i8], i32, %struct.OneTimeAuth, ptr }>
%struct.WOLFSSL_CIPHER = type { i8, i8, ptr }
%struct.Ciphers = type { ptr, ptr, ptr, ptr, i8, i8 }
%struct.Buffers = type { %struct.bufferStatic, %struct.bufferStatic, %struct.WOLFSSL_BUFFER_INFO, %struct.WOLFSSL_BUFFER_INFO, %struct.WOLFSSL_BUFFER_INFO, %struct.WOLFSSL_BUFFER_INFO, i32, i32, i8, i8, i8, i8, %struct.WOLFSSL_BUFFER_INFO, %struct.WOLFSSL_BUFFER_INFO, %struct.WOLFSSL_BUFFER_INFO, %struct.WOLFSSL_BUFFER_INFO, ptr, ptr, ptr, i8, i8, i32, i32, ptr, i32, [1 x ptr] }
%struct.bufferStatic = type { [5 x i8], ptr, i32, i32, i32, i8, i8 }
%struct.WOLFSSL_ALERT_HISTORY = type { %struct.WOLFSSL_ALERT, %struct.WOLFSSL_ALERT }
%struct.WOLFSSL_ALERT = type { i32, i32 }
%struct.RecordLayerHeader = type { i8, i8, i8, [2 x i8] }
%struct.MsgsReceived = type { i32 }
%struct.ProtocolVersion = type { i8, i8 }
%struct.CipherSpecs = type { i16, i16, i16, i16, i8, i8, i8, i8, i8, i8, i8, i8 }
%struct.Keys = type { [64 x i8], [64 x i8], [32 x i8], [32 x i8], [16 x i8], [16 x i8], [8 x i8], [12 x i8], [12 x i8], i32, i32, i32, i32, i32, i32, i8, i8, i8, i8 }
%struct.Options = type { i64, i64, i8, i8, i8, i8, i8, i8, i8, i8, i8, i8, i8, i8, i8, i8, i8, i8, i8, i8, i8, i8, i8, i16, i16, i16, i16, i16, i8 }
%struct.OneTimeAuth = type { ptr, i8 }

; Function Attrs: nounwind uwtable
define i32 @wolfSSL_set_write_fd(ptr noundef %0, i32 noundef %1) #0 {
  %3 = alloca i32, align 4
  %4 = alloca ptr, align 8
  %5 = alloca i32, align 4
  store ptr %0, ptr %4, align 8, !tbaa !61
  store i32 %1, ptr %5, align 4, !tbaa !7
  br label %6

6:                                                ; preds = %2
  br label %7

7:                                                ; preds = %6
  %8 = load ptr, ptr %4, align 8, !tbaa !61
  %9 = icmp eq ptr %8, null
  br i1 %9, label %10, label %11

10:                                               ; preds = %7
  store i32 -173, ptr %3, align 4
  br label %21

11:                                               ; preds = %7
  %12 = load i32, ptr %5, align 4, !tbaa !7
  %13 = load ptr, ptr %4, align 8, !tbaa !61
  %14 = getelementptr inbounds nuw %struct.WOLFSSL, ptr %13, i32 0, i32 33
  store i32 %12, ptr %14, align 16, !tbaa !139
  %15 = load ptr, ptr %4, align 8, !tbaa !61
  %16 = getelementptr inbounds nuw %struct.WOLFSSL, ptr %15, i32 0, i32 33
  %17 = load ptr, ptr %4, align 8, !tbaa !61
  %18 = getelementptr inbounds nuw %struct.WOLFSSL, ptr %17, i32 0, i32 8
  store ptr %16, ptr %18, align 16, !tbaa !140
  br label %19

19:                                               ; preds = %11
  br label %20

20:                                               ; preds = %19
  store i32 1, ptr %3, align 4
  br label %21

21:                                               ; preds = %20, %10
  %22 = load i32, ptr %3, align 4
  ret i32 %22
}

; Function Attrs: nounwind uwtable
define i32 @wolfSSL_set_read_fd(ptr noundef %0, i32 noundef %1) #0 {
  %3 = alloca i32, align 4
  %4 = alloca ptr, align 8
  %5 = alloca i32, align 4
  store ptr %0, ptr %4, align 8, !tbaa !61
  store i32 %1, ptr %5, align 4, !tbaa !7
  br label %6

6:                                                ; preds = %2
  br label %7

7:                                                ; preds = %6
  %8 = load ptr, ptr %4, align 8, !tbaa !61
  %9 = icmp eq ptr %8, null
  br i1 %9, label %10, label %11

10:                                               ; preds = %7
  store i32 -173, ptr %3, align 4
  br label %21

11:                                               ; preds = %7
  %12 = load i32, ptr %5, align 4, !tbaa !7
  %13 = load ptr, ptr %4, align 8, !tbaa !61
  %14 = getelementptr inbounds nuw %struct.WOLFSSL, ptr %13, i32 0, i32 32
  store i32 %12, ptr %14, align 4, !tbaa !137
  %15 = load ptr, ptr %4, align 8, !tbaa !61
  %16 = getelementptr inbounds nuw %struct.WOLFSSL, ptr %15, i32 0, i32 32
  %17 = load ptr, ptr %4, align 8, !tbaa !61
  %18 = getelementptr inbounds nuw %struct.WOLFSSL, ptr %17, i32 0, i32 7
  store ptr %16, ptr %18, align 8, !tbaa !138
  br label %19

19:                                               ; preds = %11
  br label %20

20:                                               ; preds = %19
  store i32 1, ptr %3, align 4
  br label %21

21:                                               ; preds = %20, %10
  %22 = load i32, ptr %3, align 4
  ret i32 %22
}

; Function Attrs: nounwind uwtable
define i32 @wolfSSL_set_fd(ptr noundef %0, i32 noundef %1) #0 {
  %3 = alloca i32, align 4
  %4 = alloca ptr, align 8
  %5 = alloca i32, align 4
  %6 = alloca i32, align 4
  %7 = alloca i32, align 4
  store ptr %0, ptr %4, align 8, !tbaa !61
  store i32 %1, ptr %5, align 4, !tbaa !7
  call void @llvm.lifetime.start.p0(i64 4, ptr %6) #9
  br label %8

8:                                                ; preds = %2
  br label %9

9:                                                ; preds = %8
  br label %10

10:                                               ; preds = %9
  %11 = load ptr, ptr %4, align 8, !tbaa !61
  %12 = icmp eq ptr %11, null
  br i1 %12, label %13, label %14

13:                                               ; preds = %10
  store i32 -173, ptr %3, align 4
  store i32 1, ptr %7, align 4
  br label %26

14:                                               ; preds = %10
  %15 = load ptr, ptr %4, align 8, !tbaa !61
  %16 = load i32, ptr %5, align 4, !tbaa !7
  %17 = call i32 @wolfSSL_set_read_fd(ptr noundef %15, i32 noundef %16)
  store i32 %17, ptr %6, align 4, !tbaa !7
  %18 = load i32, ptr %6, align 4, !tbaa !7
  %19 = icmp eq i32 %18, 1
  br i1 %19, label %20, label %24

20:                                               ; preds = %14
  %21 = load ptr, ptr %4, align 8, !tbaa !61
  %22 = load i32, ptr %5, align 4, !tbaa !7
  %23 = call i32 @wolfSSL_set_write_fd(ptr noundef %21, i32 noundef %22)
  store i32 %23, ptr %6, align 4, !tbaa !7
  br label %24

24:                                               ; preds = %20, %14
  %25 = load i32, ptr %6, align 4, !tbaa !7
  store i32 %25, ptr %3, align 4
  store i32 1, ptr %7, align 4
  br label %26

26:                                               ; preds = %24, %13
  call void @llvm.lifetime.end.p0(i64 4, ptr %6) #9
  %27 = load i32, ptr %3, align 4
  ret i32 %27
}