; Function Attrs: mustprogress nofree norecurse nosync nounwind willreturn memory(argmem: write) uwtable
define range(i32 -173, 2) i32 @wolfSSL_set_fd(ptr noundef %0, i32 noundef %1) local_unnamed_addr #5 {
  %3 = icmp eq ptr %0, null
  br i1 %3, label %8, label %wolfSSL_set_write_fd.exit

wolfSSL_set_write_fd.exit:                        ; preds = %2
  %4 = getelementptr inbounds nuw i8, ptr %0, i64 668
  store i32 %1, ptr %4, align 4, !tbaa !117
  %5 = getelementptr inbounds nuw i8, ptr %0, i64 136
  store ptr %4, ptr %5, align 8, !tbaa !118
  %6 = getelementptr inbounds nuw i8, ptr %0, i64 672
  store i32 %1, ptr %6, align 16, !tbaa !119
  %7 = getelementptr inbounds nuw i8, ptr %0, i64 144
  store ptr %6, ptr %7, align 16, !tbaa !120
  br label %8

8:                                                ; preds = %wolfSSL_set_write_fd.exit, %2
  %.07 = phi i32 [ -173, %2 ], [ 1, %wolfSSL_set_write_fd.exit ]
  ret i32 %.07
}